target datalayout = "e-m:e-p270:32:32-p271:32:32-p272:64:64-i64:64-i128:128-f80:128-n8:16:32:64-S128"
target triple = "x86_64-pc-linux-gnu"

@__func__.cf_find_packet_dfilter_string = private unnamed_addr constant [30 x i8] c"cf_find_packet_dfilter_string\00", align 1

; Function Attrs: null_pointer_is_valid sspstrong uwtable
define hidden zeroext i1 @cf_find_packet_dfilter_string(ptr noundef %0, ptr noundef %1, i32 noundef %2) #1 {
  %4 = alloca i1, align 1
  %5 = alloca ptr, align 8
  %6 = alloca ptr, align 8
  %7 = alloca i32, align 4
  %8 = alloca ptr, align 8
  %9 = alloca i8, align 1
  %10 = alloca i32, align 4
  store ptr %0, ptr %5, align 8
  store ptr %1, ptr %6, align 8
  store i32 %2, ptr %7, align 4
  call void @llvm.lifetime.start.p0(i64 8, ptr %8) #19
  call void @llvm.lifetime.start.p0(i64 1, ptr %9) #19
  %11 = load ptr, ptr %6, align 8
  %12 = call zeroext i1 @dfilter_compile_full(ptr noundef %11, ptr noundef %8, ptr noundef null, i32 noundef 6, ptr noundef @__func__.cf_find_packet_dfilter_string)
  br i1 %12, label %14, label %13

13:                                               ; preds = %3
  store i1 false, ptr %4, align 1
  store i32 1, ptr %10, align 4
  br label %27

14:                                               ; preds = %3
  %15 = load ptr, ptr %8, align 8
  %16 = icmp eq ptr %15, null
  br i1 %16, label %17, label %18

17:                                               ; preds = %14
  store i1 false, ptr %4, align 1
  store i32 1, ptr %10, align 4
  br label %27

18:                                               ; preds = %14
  %19 = load ptr, ptr %5, align 8
  %20 = load ptr, ptr %8, align 8
  %21 = load i32, ptr %7, align 4
  %22 = call zeroext i1 @find_packet(ptr noundef %19, ptr noundef @match_dfilter, ptr noundef %20, i32 noundef %21, i1 noundef zeroext true)
  %23 = zext i1 %22 to i8
  store i8 %23, ptr %9, align 1
  %24 = load ptr, ptr %8, align 8
  call void @dfilter_free(ptr noundef %24)
  %25 = load i8, ptr %9, align 1, !range !8, !noundef !9
  %26 = trunc i8 %25 to i1
  store i1 %26, ptr %4, align 1
  store i32 1, ptr %10, align 4
  br label %27

27:                                               ; preds = %18, %17, %13
  call void @llvm.lifetime.end.p0(i64 1, ptr %9) #19
  call void @llvm.lifetime.end.p0(i64 8, ptr %8) #19
  %28 = load i1, ptr %4, align 1
  ret i1 %28
}