; Function Attrs: null_pointer_is_valid sspstrong uwtable
define hidden noundef zeroext i1 @cf_find_packet_dfilter_string(ptr noundef %0, ptr noundef %1, i32 noundef %2) local_unnamed_addr #1 {
  %4 = alloca ptr, align 8
  call void @llvm.lifetime.start.p0(i64 8, ptr nonnull %4) #23
  %5 = call zeroext i1 @dfilter_compile_full(ptr noundef %1, ptr noundef nonnull %4, ptr noundef null, i32 noundef 6, ptr noundef nonnull @__func__.cf_find_packet_dfilter_string)
  br i1 %5, label %6, label %12

6:                                                ; preds = %3
  %7 = load ptr, ptr %4, align 8
  %8 = icmp eq ptr %7, null
  br i1 %8, label %12, label %9

9:                                                ; preds = %6
  %10 = call fastcc zeroext i1 @find_packet(ptr noundef %0, ptr noundef nonnull @match_dfilter, ptr noundef nonnull %7, i32 noundef %2, i1 noundef zeroext true)
  %11 = load ptr, ptr %4, align 8
  call void @dfilter_free(ptr noundef %11)
  br label %12

12:                                               ; preds = %6, %3, %9
  %.0 = phi i1 [ %10, %9 ], [ false, %3 ], [ false, %6 ]
  call void @llvm.lifetime.end.p0(i64 8, ptr nonnull %4) #23
  ret i1 %.0
}